target datalayout = "e-m:e-p270:32:32-p271:32:32-p272:64:64-i64:64-i128:128-f80:128-n8:16:32:64-S128"
target triple = "x86_64-pc-linux-gnu"

%struct.curve448_point_s = type { [1 x %struct.gf_s], [1 x %struct.gf_s], [1 x %struct.gf_s], [1 x %struct.gf_s] }
%struct.gf_s = type { [8 x i64] }

; Function Attrs: nounwind uwtable
define internal i32 @c448_ed448_pubkey_verify(ptr noundef %0, i64 noundef %1) #0 {
  %3 = alloca i32, align 4
  %4 = alloca ptr, align 8
  %5 = alloca i64, align 8
  %6 = alloca [1 x %struct.curve448_point_s], align 16
  %7 = alloca i32, align 4
  store ptr %0, ptr %4, align 8, !tbaa !8
  store i64 %1, ptr %5, align 8, !tbaa !10
  call void @llvm.lifetime.start.p0(i64 256, ptr %6) #6
  %8 = load i64, ptr %5, align 8, !tbaa !10
  %9 = icmp ne i64 %8, 57
  br i1 %9, label %10, label %11

10:                                               ; preds = %2
  store i32 0, ptr %3, align 4
  store i32 1, ptr %7, align 4
  br label %15

11:                                               ; preds = %2
  %12 = getelementptr inbounds [1 x %struct.curve448_point_s], ptr %6, i64 0, i64 0
  %13 = load ptr, ptr %4, align 8, !tbaa !8
  %14 = call i32 @ossl_curve448_point_decode_like_eddsa_and_mul_by_ratio(ptr noundef %12, ptr noundef %13)
  store i32 %14, ptr %3, align 4
  store i32 1, ptr %7, align 4
  br label %15

15:                                               ; preds = %11, %10
  call void @llvm.lifetime.end.p0(i64 256, ptr %6) #6
  %16 = load i32, ptr %3, align 4
  ret i32 %16
}

; Function Attrs: nounwind uwtable
define i32 @ossl_ed448_pubkey_verify(ptr noundef %0, i64 noundef %1) #0 {
  %3 = alloca ptr, align 8
  %4 = alloca i64, align 8
  store ptr %0, ptr %3, align 8, !tbaa !8
  store i64 %1, ptr %4, align 8, !tbaa !10
  %5 = load ptr, ptr %3, align 8, !tbaa !8
  %6 = load i64, ptr %4, align 8, !tbaa !10
  %7 = call i32 @c448_ed448_pubkey_verify(ptr noundef %5, i64 noundef %6)
  ret i32 %7
}