; Function Attrs: nounwind uwtable
define i32 @ossl_ed448_pubkey_verify(ptr noundef %0, i64 noundef %1) local_unnamed_addr #0 {
  %3 = alloca [1 x %struct.curve448_point_s], align 16
  call void @llvm.lifetime.start.p0(i64 256, ptr nonnull %3) #5
  %.not.i = icmp eq i64 %1, 57
  br i1 %.not.i, label %4, label %c448_ed448_pubkey_verify.exit

4:                                                ; preds = %2
  %5 = call i32 @ossl_curve448_point_decode_like_eddsa_and_mul_by_ratio(ptr noundef nonnull %3, ptr noundef %0) #5
  br label %c448_ed448_pubkey_verify.exit

c448_ed448_pubkey_verify.exit:                    ; preds = %2, %4
  %.0.i = phi i32 [ %5, %4 ], [ 0, %2 ]
  call void @llvm.lifetime.end.p0(i64 256, ptr nonnull %3) #5
  ret i32 %.0.i
}